target datalayout = "e-m:e-p270:32:32-p271:32:32-p272:64:64-i64:64-i128:128-f80:128-n8:16:32:64-S128"
target triple = "x86_64-pc-linux-gnu"

%"class.std::__cxx11::basic_string" = type { %"struct.std::__cxx11::basic_string<char>::_Alloc_hider", i64, %union.anon.0 }
%"struct.std::__cxx11::basic_string<char>::_Alloc_hider" = type { ptr }
%union.anon.0 = type { i64, [8 x i8] }
%"class.LIEF::MachO::TrieEdge" = type { %"class.std::__cxx11::basic_string", ptr }
%"class.std::unique_ptr.44" = type { %"struct.std::__uniq_ptr_data.45" }
%"struct.std::__uniq_ptr_data.45" = type { %"class.std::__uniq_ptr_impl.46" }
%"class.std::__uniq_ptr_impl.46" = type { %"class.std::tuple.47" }
%"class.std::tuple.47" = type { %"struct.std::_Tuple_impl.48" }
%"struct.std::_Tuple_impl.48" = type { %"struct.std::_Head_base.51" }
%"struct.std::_Head_base.51" = type { ptr }
%"class.LIEF::MachO::TrieNode" = type <{ %"class.std::__cxx11::basic_string", %"class.std::vector.39", i64, i64, i64, %"class.std::__cxx11::basic_string", i32, i8, i8, [2 x i8] }>
%"class.std::vector.39" = type { %"struct.std::_Vector_base.40" }
%"struct.std::_Vector_base.40" = type { %"struct.std::_Vector_base<std::unique_ptr<LIEF::MachO::TrieEdge>, std::allocator<std::unique_ptr<LIEF::MachO::TrieEdge>>>::_Vector_impl" }
%"struct.std::_Vector_base<std::unique_ptr<LIEF::MachO::TrieEdge>, std::allocator<std::unique_ptr<LIEF::MachO::TrieEdge>>>::_Vector_impl" = type { %"struct.std::_Vector_base<std::unique_ptr<LIEF::MachO::TrieEdge>, std::allocator<std::unique_ptr<LIEF::MachO::TrieEdge>>>::_Vector_impl_data" }
%"struct.std::_Vector_base<std::unique_ptr<LIEF::MachO::TrieEdge>, std::allocator<std::unique_ptr<LIEF::MachO::TrieEdge>>>::_Vector_impl_data" = type { ptr, ptr, ptr }
%"class.__gnu_cxx::__normal_iterator" = type { ptr }

; Function Attrs: mustprogress nounwind uwtable
define linkonce_odr hidden noundef nonnull align 8 dereferenceable(8) ptr @_ZNSt10_Head_baseILm0EPN4LIEF5MachO8TrieEdgeELb0EE7_M_headERKS4_(ptr noundef nonnull align 8 dereferenceable(8) %0) #1 comdat align 2 {
  %2 = alloca ptr, align 8
  store ptr %0, ptr %2, align 8
  %3 = load ptr, ptr %2, align 8
  %4 = getelementptr inbounds %"struct.std::_Head_base.51", ptr %3, i32 0, i32 0
  ret ptr %4
}

; Function Attrs: mustprogress nounwind uwtable
define linkonce_odr hidden noundef nonnull align 8 dereferenceable(8) ptr @_ZNSt11_Tuple_implILm0EJPN4LIEF5MachO8TrieEdgeESt14default_deleteIS2_EEE7_M_headERKS6_(ptr noundef nonnull align 8 dereferenceable(8) %0) #1 comdat align 2 {
  %2 = alloca ptr, align 8
  store ptr %0, ptr %2, align 8
  %3 = load ptr, ptr %2, align 8
  %4 = call noundef nonnull align 8 dereferenceable(8) ptr @_ZNSt10_Head_baseILm0EPN4LIEF5MachO8TrieEdgeELb0EE7_M_headERKS4_(ptr noundef nonnull align 8 dereferenceable(8) %3) #14
  ret ptr %4
}

; Function Attrs: mustprogress nounwind uwtable
define linkonce_odr hidden noundef nonnull align 8 dereferenceable(8) ptr @_ZSt12__get_helperILm0EPN4LIEF5MachO8TrieEdgeEJSt14default_deleteIS2_EEERKT0_RKSt11_Tuple_implIXT_EJS6_DpT1_EE(ptr noundef nonnull align 8 dereferenceable(8) %0) #1 comdat {
  %2 = alloca ptr, align 8
  store ptr %0, ptr %2, align 8
  %3 = load ptr, ptr %2, align 8
  %4 = call noundef nonnull align 8 dereferenceable(8) ptr @_ZNSt11_Tuple_implILm0EJPN4LIEF5MachO8TrieEdgeESt14default_deleteIS2_EEE7_M_headERKS6_(ptr noundef nonnull align 8 dereferenceable(8) %3) #14
  ret ptr %4
}

; Function Attrs: mustprogress nounwind uwtable
define linkonce_odr hidden noundef nonnull align 8 dereferenceable(8) ptr @_ZSt3getILm0EJPN4LIEF5MachO8TrieEdgeESt14default_deleteIS2_EEERKNSt13tuple_elementIXT_ESt5tupleIJDpT0_EEE4typeERKSA_(ptr noundef nonnull align 8 dereferenceable(8) %0) #1 comdat {
  %2 = alloca ptr, align 8
  store ptr %0, ptr %2, align 8
  %3 = load ptr, ptr %2, align 8
  %4 = call noundef nonnull align 8 dereferenceable(8) ptr @_ZSt12__get_helperILm0EPN4LIEF5MachO8TrieEdgeEJSt14default_deleteIS2_EEERKT0_RKSt11_Tuple_implIXT_EJS6_DpT1_EE(ptr noundef nonnull align 8 dereferenceable(8) %3) #14
  ret ptr %4
}

; Function Attrs: mustprogress nounwind uwtable
define linkonce_odr hidden noundef ptr @_ZNKSt15__uniq_ptr_implIN4LIEF5MachO8TrieEdgeESt14default_deleteIS2_EE6_M_ptrEv(ptr noundef nonnull align 8 dereferenceable(8) %0) #1 comdat align 2 {
  %2 = alloca ptr, align 8
  store ptr %0, ptr %2, align 8
  %3 = load ptr, ptr %2, align 8
  %4 = getelementptr inbounds %"class.std::__uniq_ptr_impl.46", ptr %3, i32 0, i32 0
  %5 = call noundef nonnull align 8 dereferenceable(8) ptr @_ZSt3getILm0EJPN4LIEF5MachO8TrieEdgeESt14default_deleteIS2_EEERKNSt13tuple_elementIXT_ESt5tupleIJDpT0_EEE4typeERKSA_(ptr noundef nonnull align 8 dereferenceable(8) %4) #14
  %6 = load ptr, ptr %5, align 8
  ret ptr %6
}

; Function Attrs: mustprogress nounwind uwtable
define linkonce_odr hidden noundef ptr @_ZNKSt10unique_ptrIN4LIEF5MachO8TrieEdgeESt14default_deleteIS2_EE3getEv(ptr noundef nonnull align 8 dereferenceable(8) %0) #1 comdat align 2 {
  %2 = alloca ptr, align 8
  store ptr %0, ptr %2, align 8
  %3 = load ptr, ptr %2, align 8
  %4 = getelementptr inbounds %"class.std::unique_ptr.44", ptr %3, i32 0, i32 0
  %5 = call noundef ptr @_ZNKSt15__uniq_ptr_implIN4LIEF5MachO8TrieEdgeESt14default_deleteIS2_EE6_M_ptrEv(ptr noundef nonnull align 8 dereferenceable(8) %4) #14
  ret ptr %5
}

; Function Attrs: mustprogress nounwind uwtable
define linkonce_odr hidden noundef nonnull align 8 dereferenceable(8) ptr @_ZNK9__gnu_cxx17__normal_iteratorIPSt10unique_ptrIN4LIEF5MachO8TrieEdgeESt14default_deleteIS4_EESt6vectorIS7_SaIS7_EEE4baseEv(ptr noundef nonnull align 8 dereferenceable(8) %0) #1 comdat align 2 {
  %2 = alloca ptr, align 8
  store ptr %0, ptr %2, align 8
  %3 = load ptr, ptr %2, align 8
  %4 = getelementptr inbounds %"class.__gnu_cxx::__normal_iterator", ptr %3, i32 0, i32 0
  ret ptr %4
}

; Function Attrs: mustprogress nounwind uwtable
define linkonce_odr hidden void @_ZN9__gnu_cxx17__normal_iteratorIPSt10unique_ptrIN4LIEF5MachO8TrieEdgeESt14default_deleteIS4_EESt6vectorIS7_SaIS7_EEEC2ERKS8_(ptr noundef nonnull align 8 dereferenceable(8) %0, ptr noundef nonnull align 8 dereferenceable(8) %1) unnamed_addr #1 comdat align 2 {
  %3 = alloca ptr, align 8
  %4 = alloca ptr, align 8
  store ptr %0, ptr %3, align 8
  store ptr %1, ptr %4, align 8
  %5 = load ptr, ptr %3, align 8
  %6 = getelementptr inbounds %"class.__gnu_cxx::__normal_iterator", ptr %5, i32 0, i32 0
  %7 = load ptr, ptr %4, align 8
  %8 = load ptr, ptr %7, align 8
  store ptr %8, ptr %6, align 8
  ret void
}

; Function Attrs: mustprogress nounwind uwtable
define linkonce_odr hidden noundef nonnull align 8 dereferenceable(8) ptr @_ZN9__gnu_cxx17__normal_iteratorIPSt10unique_ptrIN4LIEF5MachO8TrieEdgeESt14default_deleteIS4_EESt6vectorIS7_SaIS7_EEEppEv(ptr noundef nonnull align 8 dereferenceable(8) %0) #1 comdat align 2 {
  %2 = alloca ptr, align 8
  store ptr %0, ptr %2, align 8
  %3 = load ptr, ptr %2, align 8
  %4 = getelementptr inbounds %"class.__gnu_cxx::__normal_iterator", ptr %3, i32 0, i32 0
  %5 = load ptr, ptr %4, align 8
  %6 = getelementptr inbounds %"class.std::unique_ptr.44", ptr %5, i32 1
  store ptr %6, ptr %4, align 8
  ret ptr %3
}

; Function Attrs: mustprogress nounwind uwtable
define linkonce_odr hidden noundef ptr @_ZNKSt10unique_ptrIN4LIEF5MachO8TrieEdgeESt14default_deleteIS2_EEptEv(ptr noundef nonnull align 8 dereferenceable(8) %0) #1 comdat align 2 {
  %2 = alloca ptr, align 8
  store ptr %0, ptr %2, align 8
  %3 = load ptr, ptr %2, align 8
  %4 = call noundef ptr @_ZNKSt10unique_ptrIN4LIEF5MachO8TrieEdgeESt14default_deleteIS2_EE3getEv(ptr noundef nonnull align 8 dereferenceable(8) %3) #14
  ret ptr %4
}

; Function Attrs: mustprogress nounwind uwtable
define linkonce_odr hidden noundef nonnull align 8 dereferenceable(8) ptr @_ZNK9__gnu_cxx17__normal_iteratorIPSt10unique_ptrIN4LIEF5MachO8TrieEdgeESt14default_deleteIS4_EESt6vectorIS7_SaIS7_EEEdeEv(ptr noundef nonnull align 8 dereferenceable(8) %0) #1 comdat align 2 {
  %2 = alloca ptr, align 8
  store ptr %0, ptr %2, align 8
  %3 = load ptr, ptr %2, align 8
  %4 = getelementptr inbounds %"class.__gnu_cxx::__normal_iterator", ptr %3, i32 0, i32 0
  %5 = load ptr, ptr %4, align 8
  ret ptr %5
}

; Function Attrs: mustprogress nounwind uwtable
define linkonce_odr hidden noundef zeroext i1 @_ZN9__gnu_cxxneIPSt10unique_ptrIN4LIEF5MachO8TrieEdgeESt14default_deleteIS4_EESt6vectorIS7_SaIS7_EEEEbRKNS_17__normal_iteratorIT_T0_EESH_(ptr noundef nonnull align 8 dereferenceable(8) %0, ptr noundef nonnull align 8 dereferenceable(8) %1) #1 comdat {
  %3 = alloca ptr, align 8
  %4 = alloca ptr, align 8
  store ptr %0, ptr %3, align 8
  store ptr %1, ptr %4, align 8
  %5 = load ptr, ptr %3, align 8
  %6 = call noundef nonnull align 8 dereferenceable(8) ptr @_ZNK9__gnu_cxx17__normal_iteratorIPSt10unique_ptrIN4LIEF5MachO8TrieEdgeESt14default_deleteIS4_EESt6vectorIS7_SaIS7_EEE4baseEv(ptr noundef nonnull align 8 dereferenceable(8) %5) #14
  %7 = load ptr, ptr %6, align 8
  %8 = load ptr, ptr %4, align 8
  %9 = call noundef nonnull align 8 dereferenceable(8) ptr @_ZNK9__gnu_cxx17__normal_iteratorIPSt10unique_ptrIN4LIEF5MachO8TrieEdgeESt14default_deleteIS4_EESt6vectorIS7_SaIS7_EEE4baseEv(ptr noundef nonnull align 8 dereferenceable(8) %8) #14
  %10 = load ptr, ptr %9, align 8
  %11 = icmp ne ptr %7, %10
  ret i1 %11
}

; Function Attrs: mustprogress nounwind uwtable
define linkonce_odr hidden ptr @_ZNSt6vectorISt10unique_ptrIN4LIEF5MachO8TrieEdgeESt14default_deleteIS3_EESaIS6_EE3endEv(ptr noundef nonnull align 8 dereferenceable(24) %0) #1 comdat align 2 {
  %2 = alloca %"class.__gnu_cxx::__normal_iterator", align 8
  %3 = alloca ptr, align 8
  store ptr %0, ptr %3, align 8
  %4 = load ptr, ptr %3, align 8
  %5 = getelementptr inbounds %"struct.std::_Vector_base.40", ptr %4, i32 0, i32 0
  %6 = getelementptr inbounds %"struct.std::_Vector_base<std::unique_ptr<LIEF::MachO::TrieEdge>, std::allocator<std::unique_ptr<LIEF::MachO::TrieEdge>>>::_Vector_impl_data", ptr %5, i32 0, i32 1
  call void @_ZN9__gnu_cxx17__normal_iteratorIPSt10unique_ptrIN4LIEF5MachO8TrieEdgeESt14default_deleteIS4_EESt6vectorIS7_SaIS7_EEEC2ERKS8_(ptr noundef nonnull align 8 dereferenceable(8) %2, ptr noundef nonnull align 8 dereferenceable(8) %6) #14
  %7 = getelementptr inbounds %"class.__gnu_cxx::__normal_iterator", ptr %2, i32 0, i32 0
  %8 = load ptr, ptr %7, align 8
  ret ptr %8
}

; Function Attrs: mustprogress nounwind uwtable
define linkonce_odr hidden ptr @_ZNSt6vectorISt10unique_ptrIN4LIEF5MachO8TrieEdgeESt14default_deleteIS3_EESaIS6_EE5beginEv(ptr noundef nonnull align 8 dereferenceable(24) %0) #1 comdat align 2 {
  %2 = alloca %"class.__gnu_cxx::__normal_iterator", align 8
  %3 = alloca ptr, align 8
  store ptr %0, ptr %3, align 8
  %4 = load ptr, ptr %3, align 8
  %5 = getelementptr inbounds %"struct.std::_Vector_base.40", ptr %4, i32 0, i32 0
  %6 = getelementptr inbounds %"struct.std::_Vector_base<std::unique_ptr<LIEF::MachO::TrieEdge>, std::allocator<std::unique_ptr<LIEF::MachO::TrieEdge>>>::_Vector_impl_data", ptr %5, i32 0, i32 0
  call void @_ZN9__gnu_cxx17__normal_iteratorIPSt10unique_ptrIN4LIEF5MachO8TrieEdgeESt14default_deleteIS4_EESt6vectorIS7_SaIS7_EEEC2ERKS8_(ptr noundef nonnull align 8 dereferenceable(8) %2, ptr noundef nonnull align 8 dereferenceable(8) %6) #14
  %7 = getelementptr inbounds %"class.__gnu_cxx::__normal_iterator", ptr %2, i32 0, i32 0
  %8 = load ptr, ptr %7, align 8
  ret ptr %8
}

; Function Attrs: mustprogress uwtable
define hidden noundef zeroext i1 @_ZN4LIEF5MachO8TrieNode13update_offsetERj(ptr noundef nonnull align 8 dereferenceable(118) %0, ptr noundef nonnull align 4 dereferenceable(4) %1) #3 align 2 {
  %3 = alloca ptr, align 8
  %4 = alloca ptr, align 8
  %5 = alloca i32, align 4
  %6 = alloca ptr, align 8
  %7 = alloca %"class.__gnu_cxx::__normal_iterator", align 8
  %8 = alloca %"class.__gnu_cxx::__normal_iterator", align 8
  %9 = alloca ptr, align 8
  %10 = alloca i8, align 1
  store ptr %0, ptr %3, align 8
  store ptr %1, ptr %4, align 8
  %11 = load ptr, ptr %3, align 8
  store i32 1, ptr %5, align 4
  %12 = getelementptr inbounds %"class.LIEF::MachO::TrieNode", ptr %11, i32 0, i32 7
  %13 = load i8, ptr %12, align 4
  %14 = trunc i8 %13 to i1
  br i1 %14, label %15, label %72

15:                                               ; preds = %2
  %16 = getelementptr inbounds %"class.LIEF::MachO::TrieNode", ptr %11, i32 0, i32 3
  %17 = load i64, ptr %16, align 8
  %18 = and i64 %17, 8
  %19 = icmp ne i64 %18, 0
  br i1 %19, label %20, label %39

20:                                               ; preds = %15
  %21 = getelementptr inbounds %"class.LIEF::MachO::TrieNode", ptr %11, i32 0, i32 3
  %22 = load i64, ptr %21, align 8
  %23 = call noundef i64 @_ZN4LIEF15vector_iostream12uleb128_sizeEm(i64 noundef %22)
  %24 = trunc i64 %23 to i32
  store i32 %24, ptr %5, align 4
  %25 = getelementptr inbounds %"class.LIEF::MachO::TrieNode", ptr %11, i32 0, i32 4
  %26 = load i64, ptr %25, align 8
  %27 = call noundef i64 @_ZN4LIEF15vector_iostream12uleb128_sizeEm(i64 noundef %26)
  %28 = load i32, ptr %5, align 4
  %29 = zext i32 %28 to i64
  %30 = add i64 %29, %27
  %31 = trunc i64 %30 to i32
  store i32 %31, ptr %5, align 4
  %32 = getelementptr inbounds %"class.LIEF::MachO::TrieNode", ptr %11, i32 0, i32 5
  %33 = call noundef i64 @_ZNKSt7__cxx1112basic_stringIcSt11char_traitsIcESaIcEE4sizeEv(ptr noundef nonnull align 8 dereferenceable(32) %32) #14
  %34 = add i64 %33, 1
  %35 = load i32, ptr %5, align 4
  %36 = zext i32 %35 to i64
  %37 = add i64 %36, %34
  %38 = trunc i64 %37 to i32
  store i32 %38, ptr %5, align 4
  br label %64

39:                                               ; preds = %15
  %40 = getelementptr inbounds %"class.LIEF::MachO::TrieNode", ptr %11, i32 0, i32 3
  %41 = load i64, ptr %40, align 8
  %42 = call noundef i64 @_ZN4LIEF15vector_iostream12uleb128_sizeEm(i64 noundef %41)
  %43 = trunc i64 %42 to i32
  store i32 %43, ptr %5, align 4
  %44 = getelementptr inbounds %"class.LIEF::MachO::TrieNode", ptr %11, i32 0, i32 2
  %45 = load i64, ptr %44, align 8
  %46 = call noundef i64 @_ZN4LIEF15vector_iostream12uleb128_sizeEm(i64 noundef %45)
  %47 = load i32, ptr %5, align 4
  %48 = zext i32 %47 to i64
  %49 = add i64 %48, %46
  %50 = trunc i64 %49 to i32
  store i32 %50, ptr %5, align 4
  %51 = getelementptr inbounds %"class.LIEF::MachO::TrieNode", ptr %11, i32 0, i32 3
  %52 = load i64, ptr %51, align 8
  %53 = and i64 %52, 16
  %54 = icmp ne i64 %53, 0
  br i1 %54, label %55, label %63

55:                                               ; preds = %39
  %56 = getelementptr inbounds %"class.LIEF::MachO::TrieNode", ptr %11, i32 0, i32 4
  %57 = load i64, ptr %56, align 8
  %58 = call noundef i64 @_ZN4LIEF15vector_iostream12uleb128_sizeEm(i64 noundef %57)
  %59 = load i32, ptr %5, align 4
  %60 = zext i32 %59 to i64
  %61 = add i64 %60, %58
  %62 = trunc i64 %61 to i32
  store i32 %62, ptr %5, align 4
  br label %63

63:                                               ; preds = %55, %39
  br label %64

64:                                               ; preds = %63, %20
  %65 = load i32, ptr %5, align 4
  %66 = zext i32 %65 to i64
  %67 = call noundef i64 @_ZN4LIEF15vector_iostream12uleb128_sizeEm(i64 noundef %66)
  %68 = load i32, ptr %5, align 4
  %69 = zext i32 %68 to i64
  %70 = add i64 %69, %67
  %71 = trunc i64 %70 to i32
  store i32 %71, ptr %5, align 4
  br label %72

72:                                               ; preds = %64, %2
  %73 = load i32, ptr %5, align 4
  %74 = add i32 %73, 1
  store i32 %74, ptr %5, align 4
  %75 = getelementptr inbounds %"class.LIEF::MachO::TrieNode", ptr %11, i32 0, i32 1
  store ptr %75, ptr %6, align 8
  %76 = load ptr, ptr %6, align 8
  %77 = call ptr @_ZNSt6vectorISt10unique_ptrIN4LIEF5MachO8TrieEdgeESt14default_deleteIS3_EESaIS6_EE5beginEv(ptr noundef nonnull align 8 dereferenceable(24) %76) #14
  %78 = getelementptr inbounds %"class.__gnu_cxx::__normal_iterator", ptr %7, i32 0, i32 0
  store ptr %77, ptr %78, align 8
  %79 = load ptr, ptr %6, align 8
  %80 = call ptr @_ZNSt6vectorISt10unique_ptrIN4LIEF5MachO8TrieEdgeESt14default_deleteIS3_EESaIS6_EE3endEv(ptr noundef nonnull align 8 dereferenceable(24) %79) #14
  %81 = getelementptr inbounds %"class.__gnu_cxx::__normal_iterator", ptr %8, i32 0, i32 0
  store ptr %80, ptr %81, align 8
  br label %82

82:                                               ; preds = %107, %72
  %83 = call noundef zeroext i1 @_ZN9__gnu_cxxneIPSt10unique_ptrIN4LIEF5MachO8TrieEdgeESt14default_deleteIS4_EESt6vectorIS7_SaIS7_EEEEbRKNS_17__normal_iteratorIT_T0_EESH_(ptr noundef nonnull align 8 dereferenceable(8) %7, ptr noundef nonnull align 8 dereferenceable(8) %8) #14
  br i1 %83, label %84, label %109

84:                                               ; preds = %82
  %85 = call noundef nonnull align 8 dereferenceable(8) ptr @_ZNK9__gnu_cxx17__normal_iteratorIPSt10unique_ptrIN4LIEF5MachO8TrieEdgeESt14default_deleteIS4_EESt6vectorIS7_SaIS7_EEEdeEv(ptr noundef nonnull align 8 dereferenceable(8) %7) #14
  store ptr %85, ptr %9, align 8
  %86 = load ptr, ptr %9, align 8
  %87 = call noundef ptr @_ZNKSt10unique_ptrIN4LIEF5MachO8TrieEdgeESt14default_deleteIS2_EEptEv(ptr noundef nonnull align 8 dereferenceable(8) %86) #14
  %88 = getelementptr inbounds %"class.LIEF::MachO::TrieEdge", ptr %87, i32 0, i32 0
  %89 = call noundef i64 @_ZNKSt7__cxx1112basic_stringIcSt11char_traitsIcESaIcEE4sizeEv(ptr noundef nonnull align 8 dereferenceable(32) %88) #14
  %90 = add i64 %89, 1
  %91 = load i32, ptr %5, align 4
  %92 = zext i32 %91 to i64
  %93 = add i64 %92, %90
  %94 = trunc i64 %93 to i32
  store i32 %94, ptr %5, align 4
  %95 = load ptr, ptr %9, align 8
  %96 = call noundef ptr @_ZNKSt10unique_ptrIN4LIEF5MachO8TrieEdgeESt14default_deleteIS2_EEptEv(ptr noundef nonnull align 8 dereferenceable(8) %95) #14
  %97 = getelementptr inbounds %"class.LIEF::MachO::TrieEdge", ptr %96, i32 0, i32 1
  %98 = load ptr, ptr %97, align 8
  %99 = getelementptr inbounds %"class.LIEF::MachO::TrieNode", ptr %98, i32 0, i32 6
  %100 = load i32, ptr %99, align 8
  %101 = zext i32 %100 to i64
  %102 = call noundef i64 @_ZN4LIEF15vector_iostream12uleb128_sizeEm(i64 noundef %101)
  %103 = load i32, ptr %5, align 4
  %104 = zext i32 %103 to i64
  %105 = add i64 %104, %102
  %106 = trunc i64 %105 to i32
  store i32 %106, ptr %5, align 4
  br label %107

107:                                              ; preds = %84
  %108 = call noundef nonnull align 8 dereferenceable(8) ptr @_ZN9__gnu_cxx17__normal_iteratorIPSt10unique_ptrIN4LIEF5MachO8TrieEdgeESt14default_deleteIS4_EESt6vectorIS7_SaIS7_EEEppEv(ptr noundef nonnull align 8 dereferenceable(8) %7) #14
  br label %82

109:                                              ; preds = %82
  %110 = getelementptr inbounds %"class.LIEF::MachO::TrieNode", ptr %11, i32 0, i32 6
  %111 = load i32, ptr %110, align 8
  %112 = load ptr, ptr %4, align 8
  %113 = load i32, ptr %112, align 4
  %114 = icmp ne i32 %111, %113
  %115 = zext i1 %114 to i8
  store i8 %115, ptr %10, align 1
  %116 = load ptr, ptr %4, align 8
  %117 = load i32, ptr %116, align 4
  %118 = getelementptr inbounds %"class.LIEF::MachO::TrieNode", ptr %11, i32 0, i32 6
  store i32 %117, ptr %118, align 8
  %119 = load i32, ptr %5, align 4
  %120 = load ptr, ptr %4, align 8
  %121 = load i32, ptr %120, align 4
  %122 = add i32 %121, %119
  store i32 %122, ptr %120, align 4
  %123 = load i8, ptr %10, align 1
  %124 = trunc i8 %123 to i1
  ret i1 %124
}