; Function Attrs: mustprogress uwtable
define hidden noundef zeroext i1 @_ZN4LIEF5MachO8TrieNode13update_offsetERj(ptr noundef nonnull align 8 dereferenceable(118) %0, ptr nocapture noundef nonnull align 4 dereferenceable(4) %1) local_unnamed_addr #3 align 2 {
  %3 = getelementptr inbounds i8, ptr %0, i64 116
  %4 = load i8, ptr %3, align 4
  %5 = and i8 %4, 1
  %.not = icmp eq i8 %5, 0
  br i1 %.not, label %38, label %6

6:                                                ; preds = %2
  %7 = getelementptr inbounds i8, ptr %0, i64 64
  %8 = load i64, ptr %7, align 8
  %9 = and i64 %8, 8
  %.not18 = icmp eq i64 %9, 0
  %10 = tail call noundef i64 @_ZN4LIEF15vector_iostream12uleb128_sizeEm(i64 noundef %8)
  br i1 %.not18, label %20, label %11

11:                                               ; preds = %6
  %12 = getelementptr inbounds i8, ptr %0, i64 72
  %13 = load i64, ptr %12, align 8
  %14 = tail call noundef i64 @_ZN4LIEF15vector_iostream12uleb128_sizeEm(i64 noundef %13)
  %15 = getelementptr inbounds i8, ptr %0, i64 80
  %16 = tail call noundef i64 @_ZNKSt7__cxx1112basic_stringIcSt11char_traitsIcESaIcEE4sizeEv(ptr noundef nonnull align 8 dereferenceable(32) %15) #19
  %17 = add i64 %10, 1
  %18 = add i64 %17, %14
  %19 = add i64 %18, %16
  br label %32

20:                                               ; preds = %6
  %21 = getelementptr inbounds i8, ptr %0, i64 56
  %22 = load i64, ptr %21, align 8
  %23 = tail call noundef i64 @_ZN4LIEF15vector_iostream12uleb128_sizeEm(i64 noundef %22)
  %24 = add i64 %23, %10
  %25 = load i64, ptr %7, align 8
  %26 = and i64 %25, 16
  %.not19 = icmp eq i64 %26, 0
  br i1 %.not19, label %32, label %27

27:                                               ; preds = %20
  %28 = getelementptr inbounds i8, ptr %0, i64 72
  %29 = load i64, ptr %28, align 8
  %30 = tail call noundef i64 @_ZN4LIEF15vector_iostream12uleb128_sizeEm(i64 noundef %29)
  %31 = add i64 %30, %24
  br label %32

32:                                               ; preds = %20, %27, %11
  %.0.in = phi i64 [ %19, %11 ], [ %31, %27 ], [ %24, %20 ]
  %33 = and i64 %.0.in, 4294967295
  %34 = tail call noundef i64 @_ZN4LIEF15vector_iostream12uleb128_sizeEm(i64 noundef %33)
  %35 = add i64 %34, %.0.in
  %36 = trunc i64 %35 to i32
  %37 = add i32 %36, 1
  br label %38

38:                                               ; preds = %32, %2
  %.1 = phi i32 [ %37, %32 ], [ 2, %2 ]
  %39 = getelementptr inbounds i8, ptr %0, i64 32
  %40 = load ptr, ptr %39, align 8
  %41 = getelementptr inbounds i8, ptr %0, i64 40
  %42 = load ptr, ptr %41, align 8
  %.not2324 = icmp eq ptr %40, %42
  br i1 %.not2324, label %._crit_edge, label %.lr.ph

.lr.ph:                                           ; preds = %38, %.lr.ph
  %.226 = phi i32 [ %56, %.lr.ph ], [ %.1, %38 ]
  %.sroa.020.025 = phi ptr [ %57, %.lr.ph ], [ %40, %38 ]
  %43 = load ptr, ptr %.sroa.020.025, align 8
  %44 = tail call noundef i64 @_ZNKSt7__cxx1112basic_stringIcSt11char_traitsIcESaIcEE4sizeEv(ptr noundef nonnull align 8 dereferenceable(32) %43) #19
  %45 = trunc i64 %44 to i32
  %46 = load ptr, ptr %.sroa.020.025, align 8
  %47 = getelementptr inbounds i8, ptr %46, i64 32
  %48 = load ptr, ptr %47, align 8
  %49 = getelementptr inbounds i8, ptr %48, i64 112
  %50 = load i32, ptr %49, align 8
  %51 = zext i32 %50 to i64
  %52 = tail call noundef i64 @_ZN4LIEF15vector_iostream12uleb128_sizeEm(i64 noundef %51)
  %53 = trunc i64 %52 to i32
  %54 = add i32 %.226, 1
  %55 = add i32 %54, %45
  %56 = add i32 %55, %53
  %57 = getelementptr inbounds i8, ptr %.sroa.020.025, i64 8
  %.not23 = icmp eq ptr %57, %42
  br i1 %.not23, label %._crit_edge, label %.lr.ph

._crit_edge:                                      ; preds = %.lr.ph, %38
  %.2.lcssa = phi i32 [ %.1, %38 ], [ %56, %.lr.ph ]
  %58 = getelementptr inbounds i8, ptr %0, i64 112
  %59 = load i32, ptr %58, align 8
  %60 = load i32, ptr %1, align 4
  %61 = icmp ne i32 %59, %60
  store i32 %60, ptr %58, align 8
  %62 = add i32 %60, %.2.lcssa
  store i32 %62, ptr %1, align 4
  ret i1 %61
}